; Function Attrs: mustprogress uwtable
define hidden noundef nonnull align 8 dereferenceable(8) ptr @_ZNK3nla7emonics11display_useERSo(ptr nocapture noundef nonnull readonly align 8 dereferenceable(216) %this, ptr noundef nonnull returned align 8 dereferenceable(8) %out) local_unnamed_addr #4 align 2 {
entry:
  %call = tail call noundef nonnull align 8 dereferenceable(8) ptr @_ZStlsISt11char_traitsIcEERSt13basic_ostreamIcT_ES5_PKc(ptr noundef nonnull align 8 dereferenceable(8) %out, ptr noundef nonnull @.str.8)
  %m_use_lists = getelementptr inbounds i8, ptr %this, i64 152
  %0 = load ptr, ptr %m_use_lists, align 8
  %cmp.i.i = icmp eq ptr %0, null
  br i1 %cmp.i.i, label %for.end, label %_ZN6vectorIN3nla7emonics9head_tailELb0EjE3endEv.exit

_ZN6vectorIN3nla7emonics9head_tailELb0EjE3endEv.exit: ; preds = %entry
  %arrayidx.i.i = getelementptr inbounds i8, ptr %0, i64 -4
  %1 = load i32, ptr %arrayidx.i.i, align 4
  %2 = zext i32 %1 to i64
  %add.ptr.i = getelementptr inbounds %"struct.nla::emonics::head_tail", ptr %0, i64 %2
  %cmp.not13 = icmp eq i32 %1, 0
  br i1 %cmp.not13, label %for.end, label %for.body

for.body:                                         ; preds = %_ZN6vectorIN3nla7emonics9head_tailELb0EjE3endEv.exit, %if.end
  %v.015 = phi i32 [ %inc, %if.end ], [ 0, %_ZN6vectorIN3nla7emonics9head_tailELb0EjE3endEv.exit ]
  %__begin1.014 = phi ptr [ %incdec.ptr, %if.end ], [ %0, %_ZN6vectorIN3nla7emonics9head_tailELb0EjE3endEv.exit ]
  %3 = load ptr, ptr %__begin1.014, align 8
  %tobool.not = icmp eq ptr %3, null
  br i1 %tobool.not, label %if.end, label %if.then

if.then:                                          ; preds = %for.body
  %call4 = tail call noundef nonnull align 8 dereferenceable(8) ptr @_ZNSolsEj(ptr noundef nonnull align 8 dereferenceable(8) %out, i32 noundef %v.015)
  %call5 = tail call noundef nonnull align 8 dereferenceable(8) ptr @_ZStlsISt11char_traitsIcEERSt13basic_ostreamIcT_ES5_PKc(ptr noundef nonnull align 8 dereferenceable(8) %call4, ptr noundef nonnull @.str.5)
  br label %do.body

do.body:                                          ; preds = %do.body, %if.then
  %c.0 = phi ptr [ %3, %if.then ], [ %5, %do.body ]
  %call6 = tail call noundef nonnull align 8 dereferenceable(8) ptr @_ZStlsISt11char_traitsIcEERSt13basic_ostreamIcT_ES5_PKc(ptr noundef nonnull align 8 dereferenceable(8) %out, ptr noundef nonnull @.str.4)
  %m_index = getelementptr inbounds i8, ptr %c.0, i64 8
  %4 = load i32, ptr %m_index, align 8
  %call7 = tail call noundef nonnull align 8 dereferenceable(8) ptr @_ZNSolsEj(ptr noundef nonnull align 8 dereferenceable(8) %call6, i32 noundef %4)
  %call8 = tail call noundef nonnull align 8 dereferenceable(8) ptr @_ZStlsISt11char_traitsIcEERSt13basic_ostreamIcT_ES5_PKc(ptr noundef nonnull align 8 dereferenceable(8) %call7, ptr noundef nonnull @.str.9)
  %5 = load ptr, ptr %c.0, align 8
  %6 = load ptr, ptr %__begin1.014, align 8
  %cmp10.not = icmp eq ptr %5, %6
  br i1 %cmp10.not, label %do.end, label %do.body, !llvm.loop !25

do.end:                                           ; preds = %do.body
  %call11 = tail call noundef nonnull align 8 dereferenceable(8) ptr @_ZStlsISt11char_traitsIcEERSt13basic_ostreamIcT_ES5_PKc(ptr noundef nonnull align 8 dereferenceable(8) %out, ptr noundef nonnull @.str.6)
  br label %if.end

if.end:                                           ; preds = %do.end, %for.body
  %inc = add nuw i32 %v.015, 1
  %incdec.ptr = getelementptr inbounds i8, ptr %__begin1.014, i64 16
  %cmp.not = icmp eq ptr %incdec.ptr, %add.ptr.i
  br i1 %cmp.not, label %for.end, label %for.body

for.end:                                          ; preds = %if.end, %entry, %_ZN6vectorIN3nla7emonics9head_tailELb0EjE3endEv.exit
  ret ptr %out
}